; ModuleID = 'source-C-CXX/22/1229.c'
source_filename = "source-C-CXX/22/1229.c"
target datalayout = "e-m:e-p270:32:32-p271:32:32-p272:64:64-i64:64-f80:128-n8:16:32:64-S128"
target triple = "x86_64-pc-linux-gnu"

@.str = private unnamed_addr constant [4 x i8] c"%s \00", align 1

; Function Attrs: nounwind sspstrong uwtable
define dso_local void @main() local_unnamed_addr #0 {
  %1 = alloca [101 x i8], align 16
  %2 = alloca [15 x [15 x i8]], align 16
  %3 = getelementptr inbounds [101 x i8], [101 x i8]* %1, i64 0, i64 0
  call void @llvm.lifetime.start.p0i8(i64 101, i8* nonnull %3) #6
  call void @llvm.memset.p0i8.i64(i8* noundef nonnull align 16 dereferenceable(101) %3, i8 0, i64 101, i1 false)
  %4 = getelementptr inbounds [15 x [15 x i8]], [15 x [15 x i8]]* %2, i64 0, i64 0, i64 0
  call void @llvm.lifetime.start.p0i8(i64 225, i8* nonnull %4) #6
  call void @llvm.memset.p0i8.i64(i8* noundef nonnull align 16 dereferenceable(225) %4, i8 0, i64 225, i1 false)
  %5 = call i32 (i8*, ...) bitcast (i32 (...)* @gets to i32 (i8*, ...)*)(i8* nonnull %3) #6
  %6 = load i8, i8* %3, align 16, !tbaa !5
  %7 = icmp eq i8 %6, 0
  br i1 %7, label %8, label %10

8:                                                ; preds = %0
  %9 = getelementptr inbounds [15 x [15 x i8]], [15 x [15 x i8]]* %2, i64 0, i64 0, i64 0
  store i8 0, i8* %9, align 16, !tbaa !5
  br label %45

10:                                               ; preds = %0, %25
  %11 = phi i64 [ %28, %25 ], [ 0, %0 ]
  %12 = phi i8 [ %30, %25 ], [ %6, %0 ]
  %13 = phi i32 [ %27, %25 ], [ 0, %0 ]
  %14 = phi i32 [ %26, %25 ], [ 0, %0 ]
  %15 = and i8 %12, -33
  %16 = add i8 %15, -65
  %17 = icmp ult i8 %16, 26
  br i1 %17, label %18, label %23

18:                                               ; preds = %10
  %19 = sext i32 %14 to i64
  %20 = add nsw i32 %13, 1
  %21 = sext i32 %13 to i64
  %22 = getelementptr inbounds [15 x [15 x i8]], [15 x [15 x i8]]* %2, i64 0, i64 %19, i64 %21
  store i8 %12, i8* %22, align 1, !tbaa !5
  br label %25

23:                                               ; preds = %10
  %24 = add nsw i32 %14, 1
  br label %25

25:                                               ; preds = %23, %18
  %26 = phi i32 [ %14, %18 ], [ %24, %23 ]
  %27 = phi i32 [ %20, %18 ], [ 0, %23 ]
  %28 = add nuw i64 %11, 1
  %29 = getelementptr inbounds [101 x i8], [101 x i8]* %1, i64 0, i64 %28
  %30 = load i8, i8* %29, align 1, !tbaa !5
  %31 = icmp eq i8 %30, 0
  br i1 %31, label %32, label %10, !llvm.loop !8

32:                                               ; preds = %25
  %33 = sext i32 %26 to i64
  %34 = sext i32 %27 to i64
  %35 = getelementptr inbounds [15 x [15 x i8]], [15 x [15 x i8]]* %2, i64 0, i64 %33, i64 %34
  store i8 0, i8* %35, align 1, !tbaa !5
  %36 = icmp sgt i32 %26, 0
  br i1 %36, label %37, label %45

37:                                               ; preds = %32
  %38 = zext i32 %26 to i64
  br label %39

39:                                               ; preds = %37, %39
  %40 = phi i64 [ %38, %37 ], [ %44, %39 ]
  %41 = getelementptr inbounds [15 x [15 x i8]], [15 x [15 x i8]]* %2, i64 0, i64 %40, i64 0
  %42 = call i32 (i8*, ...) @printf(i8* nonnull dereferenceable(1) getelementptr inbounds ([4 x i8], [4 x i8]* @.str, i64 0, i64 0), i8* nonnull %41)
  %43 = icmp sgt i64 %40, 1
  %44 = add nsw i64 %40, -1
  br i1 %43, label %39, label %45, !llvm.loop !10

45:                                               ; preds = %39, %8, %32
  %46 = call i32 @puts(i8* nonnull %4)
  call void @llvm.lifetime.end.p0i8(i64 225, i8* nonnull %4) #6
  call void @llvm.lifetime.end.p0i8(i64 101, i8* nonnull %3) #6
  ret void
}

; Function Attrs: argmemonly mustprogress nofree nosync nounwind willreturn
declare void @llvm.lifetime.start.p0i8(i64 immarg, i8* nocapture) #1

; Function Attrs: argmemonly mustprogress nofree nounwind willreturn writeonly
declare void @llvm.memset.p0i8.i64(i8* nocapture writeonly, i8, i64, i1 immarg) #2

declare i32 @gets(...) local_unnamed_addr #3

; Function Attrs: nofree nounwind
declare noundef i32 @printf(i8* nocapture noundef readonly, ...) local_unnamed_addr #4

; Function Attrs: argmemonly mustprogress nofree nosync nounwind willreturn
declare void @llvm.lifetime.end.p0i8(i64 immarg, i8* nocapture) #1

; Function Attrs: nofree nounwind
declare noundef i32 @puts(i8* nocapture noundef readonly) local_unnamed_addr #5


!llvm.module.flags = !{!0, !1, !2, !3}
!llvm.ident = !{!4}

!0 = !{i32 1, !"wchar_size", i32 4}
!1 = !{i32 7, !"PIC Level", i32 2}
!2 = !{i32 7, !"PIE Level", i32 2}
!3 = !{i32 7, !"uwtable", i32 1}
!4 = !{!"clang version 13.0.0"}
!5 = !{!6, !6, i64 0}
!6 = !{!"omnipotent char", !7, i64 0}
!7 = !{!"Simple C/C++ TBAA"}
!8 = distinct !{!8, !9}
!9 = !{!"llvm.loop.mustprogress"}
!10 = distinct !{!10, !9}
